; Function Attrs: mustprogress uwtable
define dso_local range(i32 5, -8) i32 @_ZN4Luau7CodeGen9IrBuilder11blockAtInstEj(ptr noundef nonnull align 8 captures(none) dereferenceable(752) %0, i32 noundef %1) local_unnamed_addr #2 align 2 {
  %3 = getelementptr inbounds nuw i8, ptr %0, i64 656
  %4 = zext i32 %1 to i64
  %5 = load ptr, ptr %3, align 8, !tbaa !136
  %6 = getelementptr inbounds nuw i32, ptr %5, i64 %4
  %7 = load i32, ptr %6, align 4, !tbaa !137
  %.not = icmp eq i32 %7, -1
  br i1 %.not, label %11, label %8

8:                                                ; preds = %2
  %9 = shl i32 %7, 4
  %10 = or disjoint i32 %9, 5
  br label %13

11:                                               ; preds = %2
  %12 = tail call i32 @_ZN4Luau7CodeGen9IrBuilder5blockENS0_11IrBlockKindE(ptr noundef nonnull align 8 dereferenceable(752) %0, i8 noundef zeroext 2)
  br label %13

13:                                               ; preds = %11, %8
  %.sroa.0.0 = phi i32 [ %12, %11 ], [ %10, %8 ]
  ret i32 %.sroa.0.0
}